; Function Attrs: nounwind uwtable
define void @unprepare_permutation_ntk(ptr noundef readonly captures(none) %0) local_unnamed_addr #0 {
  %2 = getelementptr inbounds nuw i8, ptr %0, i64 512
  %3 = load ptr, ptr %2, align 8
  %4 = getelementptr i8, ptr %3, i64 48
  %.val = load ptr, ptr %4, align 8
  %5 = getelementptr i8, ptr %.val, i64 4
  %.val.val = load i32, ptr %5, align 4
  %6 = getelementptr inbounds nuw i8, ptr %0, i64 520
  %7 = load ptr, ptr %6, align 8
  %8 = getelementptr inbounds nuw i8, ptr %7, i64 24
  %9 = load ptr, ptr %8, align 8
  tail call void @Nm_ManFree(ptr noundef %9) #24
  %10 = load ptr, ptr %2, align 8
  %11 = getelementptr i8, ptr %10, i64 56
  %.val28 = load ptr, ptr %11, align 8
  %12 = getelementptr i8, ptr %.val28, i64 4
  %.val28.val = load i32, ptr %12, align 4
  %13 = getelementptr i8, ptr %10, i64 64
  %.val29 = load ptr, ptr %13, align 8
  %14 = getelementptr i8, ptr %.val29, i64 4
  %.val29.val = load i32, ptr %14, align 4
  %15 = add nsw i32 %.val29.val, %.val28.val
  %16 = getelementptr i8, ptr %10, i64 80
  %.val30 = load ptr, ptr %16, align 8
  %17 = getelementptr i8, ptr %.val30, i64 4
  %.val30.val = load i32, ptr %17, align 4
  %18 = add nsw i32 %15, %.val30.val
  %19 = tail call ptr @Nm_ManCreate(i32 noundef %18) #24
  %20 = load ptr, ptr %6, align 8
  %21 = getelementptr inbounds nuw i8, ptr %20, i64 24
  store ptr %19, ptr %21, align 8
  %22 = load i32, ptr %0, align 8
  %23 = icmp sgt i32 %22, 0
  br i1 %23, label %.lr.ph, label %._crit_edge

.lr.ph:                                           ; preds = %1
  %24 = getelementptr inbounds nuw i8, ptr %0, i64 208
  %25 = sext i32 %.val.val to i64
  br label %26

26:                                               ; preds = %.lr.ph, %50
  %indvars.iv = phi i64 [ 0, %.lr.ph ], [ %indvars.iv.next, %50 ]
  %27 = icmp slt i64 %indvars.iv, %25
  %28 = load ptr, ptr %2, align 8
  %29 = load ptr, ptr %24, align 8
  %30 = getelementptr inbounds nuw i32, ptr %29, i64 %indvars.iv
  %31 = load i32, ptr %30, align 4
  br i1 %27, label %32, label %40

32:                                               ; preds = %26
  %33 = getelementptr inbounds nuw i8, ptr %28, i64 48
  %34 = load ptr, ptr %33, align 8
  %35 = getelementptr i8, ptr %34, i64 8
  %.val34 = load ptr, ptr %35, align 8
  %36 = sext i32 %31 to i64
  %37 = getelementptr inbounds ptr, ptr %.val34, i64 %36
  %38 = load ptr, ptr %6, align 8
  %39 = getelementptr inbounds nuw i8, ptr %38, i64 48
  br label %50

40:                                               ; preds = %26
  %41 = getelementptr inbounds nuw i8, ptr %28, i64 40
  %42 = load ptr, ptr %41, align 8
  %43 = sub nsw i32 %31, %.val.val
  %44 = getelementptr i8, ptr %42, i64 8
  %.val32 = load ptr, ptr %44, align 8
  %45 = sext i32 %43 to i64
  %46 = getelementptr inbounds ptr, ptr %.val32, i64 %45
  %47 = load ptr, ptr %6, align 8
  %48 = getelementptr inbounds nuw i8, ptr %47, i64 40
  %49 = sub nsw i64 %indvars.iv, %25
  br label %50

50:                                               ; preds = %40, %32
  %.sink38.in = phi ptr [ %48, %40 ], [ %39, %32 ]
  %.sink = phi i64 [ %49, %40 ], [ %indvars.iv, %32 ]
  %.026.in = phi ptr [ %46, %40 ], [ %37, %32 ]
  %.sink38 = load ptr, ptr %.sink38.in, align 8
  %51 = getelementptr i8, ptr %.sink38, i64 8
  %.val31 = load ptr, ptr %51, align 8
  %52 = getelementptr inbounds ptr, ptr %.val31, i64 %.sink
  %.025 = load ptr, ptr %52, align 8
  %.026 = load ptr, ptr %.026.in, align 8
  %53 = tail call ptr @Abc_ObjName(ptr noundef %.026) #24
  %54 = tail call ptr @Abc_ObjAssignName(ptr noundef %.025, ptr noundef %53, ptr noundef null) #24
  %indvars.iv.next = add nuw nsw i64 %indvars.iv, 1
  %55 = load i32, ptr %0, align 8
  %56 = sext i32 %55 to i64
  %57 = icmp slt i64 %indvars.iv.next, %56
  br i1 %57, label %26, label %._crit_edge, !llvm.loop !6

._crit_edge:                                      ; preds = %50, %1
  %58 = load ptr, ptr %6, align 8
  tail call void @Abc_NtkOrderObjsByName(ptr noundef %58, i32 noundef 1) #24
  ret void
}